target datalayout = "e-m:e-p270:32:32-p271:32:32-p272:64:64-i64:64-i128:128-f80:128-n8:16:32:64-S128"
target triple = "x86_64-pc-linux-gnu"

%class.ObjectDescriptionBuilder = type { [100 x i8], i64 }
%class.ObjectSampleDescription = type { [8 x i8], %class.ObjectDescriptionBuilder, ptr }

@.str = private unnamed_addr constant [3 x i8] c"%d\00", align 1

; Function Attrs: mustprogress nounwind uwtable
define hidden void @_ZN24ObjectDescriptionBuilder10write_textEPKc(ptr noundef nonnull align 8 dereferenceable(112) %0, ptr noundef %1) #1 align 2 {
  %3 = alloca ptr, align 8
  %4 = alloca ptr, align 8
  store ptr %0, ptr %3, align 8
  store ptr %1, ptr %4, align 8
  %5 = load ptr, ptr %3, align 8
  %6 = getelementptr inbounds %class.ObjectDescriptionBuilder, ptr %5, i32 0, i32 1
  %7 = load i64, ptr %6, align 8
  %8 = icmp eq i64 %7, 98
  br i1 %8, label %9, label %10

9:                                                ; preds = %2
  br label %59

10:                                               ; preds = %2
  br label %11

11:                                               ; preds = %22, %10
  %12 = load ptr, ptr %4, align 8
  %13 = load i8, ptr %12, align 1
  %14 = sext i8 %13 to i32
  %15 = icmp ne i32 %14, 0
  br i1 %15, label %16, label %20

16:                                               ; preds = %11
  %17 = getelementptr inbounds %class.ObjectDescriptionBuilder, ptr %5, i32 0, i32 1
  %18 = load i64, ptr %17, align 8
  %19 = icmp ult i64 %18, 98
  br label %20

20:                                               ; preds = %16, %11
  %21 = phi i1 [ false, %11 ], [ %19, %16 ]
  br i1 %21, label %22, label %34

22:                                               ; preds = %20
  %23 = load ptr, ptr %4, align 8
  %24 = load i8, ptr %23, align 1
  %25 = getelementptr inbounds %class.ObjectDescriptionBuilder, ptr %5, i32 0, i32 0
  %26 = getelementptr inbounds %class.ObjectDescriptionBuilder, ptr %5, i32 0, i32 1
  %27 = load i64, ptr %26, align 8
  %28 = getelementptr inbounds [100 x i8], ptr %25, i64 0, i64 %27
  store i8 %24, ptr %28, align 1
  %29 = getelementptr inbounds %class.ObjectDescriptionBuilder, ptr %5, i32 0, i32 1
  %30 = load i64, ptr %29, align 8
  %31 = add i64 %30, 1
  store i64 %31, ptr %29, align 8
  %32 = load ptr, ptr %4, align 8
  %33 = getelementptr inbounds i8, ptr %32, i32 1
  store ptr %33, ptr %4, align 8
  br label %11, !llvm.loop !6

34:                                               ; preds = %20
  %35 = getelementptr inbounds %class.ObjectDescriptionBuilder, ptr %5, i32 0, i32 1
  %36 = load i64, ptr %35, align 8
  %37 = icmp eq i64 %36, 98
  br i1 %37, label %38, label %54

38:                                               ; preds = %34
  %39 = getelementptr inbounds %class.ObjectDescriptionBuilder, ptr %5, i32 0, i32 0
  %40 = getelementptr inbounds %class.ObjectDescriptionBuilder, ptr %5, i32 0, i32 1
  %41 = load i64, ptr %40, align 8
  %42 = sub i64 %41, 3
  %43 = getelementptr inbounds [100 x i8], ptr %39, i64 0, i64 %42
  store i8 46, ptr %43, align 1
  %44 = getelementptr inbounds %class.ObjectDescriptionBuilder, ptr %5, i32 0, i32 0
  %45 = getelementptr inbounds %class.ObjectDescriptionBuilder, ptr %5, i32 0, i32 1
  %46 = load i64, ptr %45, align 8
  %47 = sub i64 %46, 2
  %48 = getelementptr inbounds [100 x i8], ptr %44, i64 0, i64 %47
  store i8 46, ptr %48, align 1
  %49 = getelementptr inbounds %class.ObjectDescriptionBuilder, ptr %5, i32 0, i32 0
  %50 = getelementptr inbounds %class.ObjectDescriptionBuilder, ptr %5, i32 0, i32 1
  %51 = load i64, ptr %50, align 8
  %52 = sub i64 %51, 1
  %53 = getelementptr inbounds [100 x i8], ptr %49, i64 0, i64 %52
  store i8 46, ptr %53, align 1
  br label %54

54:                                               ; preds = %38, %34
  %55 = getelementptr inbounds %class.ObjectDescriptionBuilder, ptr %5, i32 0, i32 0
  %56 = getelementptr inbounds %class.ObjectDescriptionBuilder, ptr %5, i32 0, i32 1
  %57 = load i64, ptr %56, align 8
  %58 = getelementptr inbounds [100 x i8], ptr %55, i64 0, i64 %57
  store i8 0, ptr %58, align 1
  br label %59

59:                                               ; preds = %54, %9
  ret void
}

; Function Attrs: mustprogress nounwind uwtable
define hidden void @_ZN24ObjectDescriptionBuilder9write_intEi(ptr noundef nonnull align 8 dereferenceable(112) %0, i32 noundef %1) #1 align 2 {
  %3 = alloca ptr, align 8
  %4 = alloca i32, align 4
  %5 = alloca [20 x i8], align 16
  store ptr %0, ptr %3, align 8
  store i32 %1, ptr %4, align 4
  %6 = load ptr, ptr %3, align 8
  %7 = getelementptr inbounds [20 x i8], ptr %5, i64 0, i64 0
  %8 = load i32, ptr %4, align 4
  %9 = call i32 (ptr, i64, ptr, ...) @jio_snprintf(ptr noundef %7, i64 noundef 20, ptr noundef @.str, i32 noundef %8)
  %10 = getelementptr inbounds [20 x i8], ptr %5, i64 0, i64 0
  call void @_ZN24ObjectDescriptionBuilder10write_textEPKc(ptr noundef nonnull align 8 dereferenceable(112) %6, ptr noundef %10)
  ret void
}

; Function Attrs: mustprogress nounwind uwtable
define hidden void @_ZN23ObjectSampleDescription9write_intEi(ptr noundef nonnull align 8 dereferenceable(128) %0, i32 noundef %1) #1 align 2 {
  %3 = alloca ptr, align 8
  %4 = alloca i32, align 4
  store ptr %0, ptr %3, align 8
  store i32 %1, ptr %4, align 4
  %5 = load ptr, ptr %3, align 8
  %6 = getelementptr inbounds %class.ObjectSampleDescription, ptr %5, i32 0, i32 1
  %7 = load i32, ptr %4, align 4
  call void @_ZN24ObjectDescriptionBuilder9write_intEi(ptr noundef nonnull align 8 dereferenceable(112) %6, i32 noundef %7)
  ret void
}