; Function Attrs: mustprogress nounwind uwtable
define hidden void @_ZN23ObjectSampleDescription9write_intEi(ptr nocapture noundef nonnull align 8 dereferenceable(128) %0, i32 noundef %1) local_unnamed_addr #1 align 2 {
  %3 = alloca [20 x i8], align 16
  %4 = getelementptr inbounds i8, ptr %0, i64 8
  call void @llvm.lifetime.start.p0(i64 20, ptr nonnull %3)
  %5 = call i32 (ptr, i64, ptr, ...) @jio_snprintf(ptr noundef nonnull %3, i64 noundef 20, ptr noundef nonnull @.str, i32 noundef %1) #10
  %6 = getelementptr inbounds i8, ptr %0, i64 112
  %7 = load i64, ptr %6, align 8
  %8 = icmp eq i64 %7, 98
  br i1 %8, label %_ZN24ObjectDescriptionBuilder9write_intEi.exit, label %.preheader.i.i

.preheader.i.i:                                   ; preds = %2
  %9 = load i8, ptr %3, align 16
  %.not6.i.i = icmp eq i8 %9, 0
  br i1 %.not6.i.i, label %.critedge.thread.i.i, label %.lr.ph.i.i

.lr.ph.i.i:                                       ; preds = %.preheader.i.i, %13
  %10 = phi i64 [ %16, %13 ], [ %7, %.preheader.i.i ]
  %11 = phi i8 [ %18, %13 ], [ %9, %.preheader.i.i ]
  %.07.i.i = phi ptr [ %17, %13 ], [ %3, %.preheader.i.i ]
  %12 = icmp ult i64 %10, 98
  br i1 %12, label %13, label %.critedge.i.i

13:                                               ; preds = %.lr.ph.i.i
  %14 = getelementptr inbounds [100 x i8], ptr %4, i64 0, i64 %10
  store i8 %11, ptr %14, align 1
  %15 = load i64, ptr %6, align 8
  %16 = add i64 %15, 1
  store i64 %16, ptr %6, align 8
  %17 = getelementptr inbounds i8, ptr %.07.i.i, i64 1
  %18 = load i8, ptr %17, align 1
  %.not.i.i = icmp eq i8 %18, 0
  br i1 %.not.i.i, label %.critedge.i.i, label %.lr.ph.i.i, !llvm.loop !6

.critedge.i.i:                                    ; preds = %13, %.lr.ph.i.i
  %.pre.i.i = phi i64 [ %16, %13 ], [ %10, %.lr.ph.i.i ]
  %19 = icmp eq i64 %.pre.i.i, 98
  br i1 %19, label %20, label %.critedge.thread.i.i

20:                                               ; preds = %.critedge.i.i
  %21 = getelementptr inbounds i8, ptr %0, i64 103
  store i8 46, ptr %21, align 1
  %22 = getelementptr inbounds i8, ptr %0, i64 104
  store i8 46, ptr %22, align 8
  %23 = getelementptr inbounds i8, ptr %0, i64 105
  store i8 46, ptr %23, align 1
  br label %.critedge.thread.i.i

.critedge.thread.i.i:                             ; preds = %20, %.critedge.i.i, %.preheader.i.i
  %.pre11.i.i = phi i64 [ 98, %20 ], [ %.pre.i.i, %.critedge.i.i ], [ %7, %.preheader.i.i ]
  %24 = getelementptr inbounds [100 x i8], ptr %4, i64 0, i64 %.pre11.i.i
  store i8 0, ptr %24, align 1
  br label %_ZN24ObjectDescriptionBuilder9write_intEi.exit

_ZN24ObjectDescriptionBuilder9write_intEi.exit:   ; preds = %2, %.critedge.thread.i.i
  call void @llvm.lifetime.end.p0(i64 20, ptr nonnull %3)
  ret void
}